; Function Attrs: mustprogress uwtable
define noundef i32 @ucol_cloneBinary_75(ptr noundef %coll, ptr noundef %buffer, i32 noundef %capacity, ptr noundef %status) local_unnamed_addr #0 {
entry:
  %0 = load i32, ptr %status, align 4
  %cmp.i = icmp slt i32 %0, 1
  br i1 %cmp.i, label %if.end, label %return

if.end:                                           ; preds = %entry
  %1 = icmp ne ptr %coll, null
  tail call void @llvm.assume(i1 %1)
  %2 = tail call ptr @__dynamic_cast(ptr nonnull %coll, ptr nonnull @_ZTIN6icu_758CollatorE, ptr nonnull @_ZTIN6icu_7517RuleBasedCollatorE, i64 0) #10
  %cmp = icmp eq ptr %2, null
  br i1 %cmp, label %if.then3, label %if.end4

if.then3:                                         ; preds = %if.end
  store i32 16, ptr %status, align 4
  br label %return

if.end4:                                          ; preds = %if.end
  %call5 = tail call noundef i32 @_ZNK6icu_7517RuleBasedCollator11cloneBinaryEPhiR10UErrorCode(ptr noundef nonnull align 8 dereferenceable(272) %2, ptr noundef %buffer, i32 noundef %capacity, ptr noundef nonnull align 4 dereferenceable(4) %status)
  br label %return

return:                                           ; preds = %entry, %if.end4, %if.then3
  %retval.0 = phi i32 [ 0, %if.then3 ], [ %call5, %if.end4 ], [ 0, %entry ]
  ret i32 %retval.0
}